target datalayout = "e-m:e-p270:32:32-p271:32:32-p272:64:64-i64:64-i128:128-f80:128-n8:16:32:64-S128"
target triple = "x86_64-pc-linux-gnu"

%"class.ElfFile::DwarfFilePath" = type <{ ptr, [4097 x i8], [3 x i8], i32, i16, [6 x i8] }>

@.str.10 = private unnamed_addr constant [3 x i8] c"%s\00", align 1

; Function Attrs: mustprogress nounwind uwtable
define linkonce_odr hidden noundef zeroext i16 @_Z12checked_castItmET_T0_(i64 noundef %0) #1 comdat {
  %2 = alloca i64, align 8
  %3 = alloca i16, align 2
  store i64 %0, ptr %2, align 8
  %4 = load i64, ptr %2, align 8
  %5 = trunc i64 %4 to i16
  store i16 %5, ptr %3, align 2
  %6 = load i16, ptr %3, align 2
  ret i16 %6
}

; Function Attrs: mustprogress nounwind uwtable
define linkonce_odr hidden noundef zeroext i1 @_ZNK7ElfFile13DwarfFilePath16check_valid_pathEv(ptr noundef nonnull align 8 dereferenceable(4114) %0) #1 comdat align 2 {
  %2 = alloca ptr, align 8
  store ptr %0, ptr %2, align 8
  %3 = load ptr, ptr %2, align 8
  %4 = getelementptr inbounds %"class.ElfFile::DwarfFilePath", ptr %3, i32 0, i32 1
  %5 = getelementptr inbounds [4097 x i8], ptr %4, i64 0, i64 4096
  %6 = load i8, ptr %5, align 8
  %7 = sext i8 %6 to i32
  %8 = icmp eq i32 %7, 0
  ret i1 %8
}

; Function Attrs: mustprogress nounwind uwtable
define linkonce_odr hidden void @_ZN7ElfFile13DwarfFilePath28update_null_terminator_indexEv(ptr noundef nonnull align 8 dereferenceable(4114) %0) #1 comdat align 2 {
  %2 = alloca ptr, align 8
  store ptr %0, ptr %2, align 8
  %3 = load ptr, ptr %2, align 8
  %4 = getelementptr inbounds %"class.ElfFile::DwarfFilePath", ptr %3, i32 0, i32 1
  %5 = getelementptr inbounds [4097 x i8], ptr %4, i64 0, i64 0
  %6 = call i64 @strlen(ptr noundef %5) #8
  %7 = call noundef zeroext i16 @_Z12checked_castItmET_T0_(i64 noundef %6)
  %8 = getelementptr inbounds %"class.ElfFile::DwarfFilePath", ptr %3, i32 0, i32 4
  store i16 %7, ptr %8, align 8
  ret void
}

; Function Attrs: mustprogress nounwind uwtable
define hidden noundef zeroext i1 @_ZN7ElfFile13DwarfFilePath3setEPKc(ptr noundef nonnull align 8 dereferenceable(4114) %0, ptr noundef %1) #1 align 2 {
  %3 = alloca i1, align 1
  %4 = alloca ptr, align 8
  %5 = alloca ptr, align 8
  %6 = alloca i32, align 4
  store ptr %0, ptr %4, align 8
  store ptr %1, ptr %5, align 8
  %7 = load ptr, ptr %4, align 8
  %8 = getelementptr inbounds %"class.ElfFile::DwarfFilePath", ptr %7, i32 0, i32 1
  %9 = getelementptr inbounds [4097 x i8], ptr %8, i64 0, i64 0
  %10 = load ptr, ptr %5, align 8
  %11 = call i32 (ptr, i64, ptr, ...) @jio_snprintf(ptr noundef %9, i64 noundef 4097, ptr noundef @.str.10, ptr noundef %10)
  store i32 %11, ptr %6, align 4
  %12 = load i32, ptr %6, align 4
  %13 = icmp slt i32 %12, 0
  br i1 %13, label %17, label %14

14:                                               ; preds = %2
  %15 = load i32, ptr %6, align 4
  %16 = icmp sge i32 %15, 4097
  br i1 %16, label %17, label %18

17:                                               ; preds = %14, %2
  store i1 false, ptr %3, align 1
  br label %20

18:                                               ; preds = %14
  call void @_ZN7ElfFile13DwarfFilePath28update_null_terminator_indexEv(ptr noundef nonnull align 8 dereferenceable(4114) %7)
  %19 = call noundef zeroext i1 @_ZNK7ElfFile13DwarfFilePath16check_valid_pathEv(ptr noundef nonnull align 8 dereferenceable(4114) %7)
  store i1 %19, ptr %3, align 1
  br label %20

20:                                               ; preds = %18, %17
  %21 = load i1, ptr %3, align 1
  ret i1 %21
}