; Function Attrs: mustprogress nounwind uwtable
define hidden noundef zeroext i1 @_ZN7ElfFile13DwarfFilePath3setEPKc(ptr noundef nonnull align 8 dereferenceable(4114) %0, ptr noundef %1) local_unnamed_addr #0 align 2 {
  %3 = getelementptr inbounds i8, ptr %0, i64 8
  %4 = tail call i32 (ptr, i64, ptr, ...) @jio_snprintf(ptr noundef nonnull %3, i64 noundef 4097, ptr noundef nonnull @.str.10, ptr noundef %1) #15
  %or.cond = icmp ugt i32 %4, 4096
  br i1 %or.cond, label %12, label %5

5:                                                ; preds = %2
  %6 = tail call i64 @strlen(ptr noundef nonnull dereferenceable(1) %3) #16
  %7 = trunc i64 %6 to i16
  %8 = getelementptr inbounds i8, ptr %0, i64 4112
  store i16 %7, ptr %8, align 8
  %9 = getelementptr inbounds i8, ptr %0, i64 4104
  %10 = load i8, ptr %9, align 8
  %11 = icmp eq i8 %10, 0
  br label %12

12:                                               ; preds = %2, %5
  %.0 = phi i1 [ %11, %5 ], [ false, %2 ]
  ret i1 %.0
}